target datalayout = "e-m:e-p270:32:32-p271:32:32-p272:64:64-i64:64-i128:128-f80:128-n8:16:32:64-S128"
target triple = "x86_64-pc-linux-gnu"

%struct._object = type { %union.anon, ptr }
%union.anon = type { i64 }
%struct.Token = type { i32, ptr, i32, i32, i32, i32, i32, ptr, ptr }
%struct.anon = type { i32, i32 }
%struct.Parser = type { ptr, ptr, i32, i32, i32, ptr, ptr, ptr, i32, i32, ptr, i32, ptr, i32, i32, i32, i32, i32, %struct.growable_comment_array, ptr, i32, i32, i32 }
%struct.growable_comment_array = type { ptr, i64, i64 }
%struct.tok_state = type { ptr, ptr, ptr, i32, ptr, ptr, ptr, ptr, i32, ptr, i32, i32, [100 x i32], i32, i32, ptr, ptr, i32, i32, i32, i32, i32, [200 x i8], [200 x i32], [200 x i32], ptr, [100 x i32], i32, i32, ptr, i32, ptr, ptr, ptr, ptr, ptr, ptr, ptr, ptr, i32, i32, ptr, i32, [150 x %struct._tokenizer_mode], i32, i32, i32, i32 }
%struct._tokenizer_mode = type { i32, i32, i32, i8, i32, i32, ptr, ptr, i32, i64, i64, i64, i64, ptr, i32, i32 }

@PyExc_SyntaxError = external global ptr, align 8
@.str.5 = private unnamed_addr constant [144 x i8] c"\22\\%.3s\22 is an invalid octal escape sequence. Such sequences will not work in the future. Did you mean \22\\\\%.3s\22? A raw string is also an option.\00", align 1
@.str.6 = private unnamed_addr constant [134 x i8] c"\22\\%c\22 is an invalid escape sequence. Such sequences will not work in the future. Did you mean \22\\\\%c\22? A raw string is also an option.\00", align 1
@PyExc_SyntaxWarning = external global ptr, align 8
@PyExc_DeprecationWarning = external global ptr, align 8
@.str.7 = private unnamed_addr constant [100 x i8] c"\22\\%.3s\22 is an invalid octal escape sequence. Did you mean \22\\\\%.3s\22? A raw string is also an option.\00", align 1
@.str.8 = private unnamed_addr constant [90 x i8] c"\22\\%c\22 is an invalid escape sequence. Did you mean \22\\\\%c\22? A raw string is also an option.\00", align 1

; Function Attrs: alwaysinline nounwind uwtable
define internal i32 @_Py_IsImmortal(ptr noundef %0) #6 {
  %2 = alloca ptr, align 8
  store ptr %0, ptr %2, align 8, !tbaa !14
  %3 = load ptr, ptr %2, align 8, !tbaa !14
  %4 = getelementptr inbounds nuw %struct._object, ptr %3, i32 0, i32 0
  %5 = getelementptr inbounds nuw %struct.anon, ptr %4, i32 0, i32 0
  %6 = load i32, ptr %5, align 8, !tbaa !16
  %7 = icmp slt i32 %6, 0
  %8 = zext i1 %7 to i32
  ret i32 %8
}

; Function Attrs: alwaysinline nounwind uwtable
define internal void @Py_DECREF(ptr noundef %0) #6 {
  %2 = alloca ptr, align 8
  store ptr %0, ptr %2, align 8, !tbaa !14
  %3 = load ptr, ptr %2, align 8, !tbaa !14
  %4 = call i32 @_Py_IsImmortal(ptr noundef %3)
  %5 = icmp ne i32 %4, 0
  br i1 %5, label %6, label %7

6:                                                ; preds = %1
  br label %16

7:                                                ; preds = %1
  %8 = load ptr, ptr %2, align 8, !tbaa !14
  %9 = getelementptr inbounds nuw %struct._object, ptr %8, i32 0, i32 0
  %10 = getelementptr inbounds nuw %struct.anon, ptr %9, i32 0, i32 0
  %11 = load i32, ptr %10, align 8, !tbaa !16
  %12 = add i32 %11, -1
  store i32 %12, ptr %10, align 8, !tbaa !16
  %13 = icmp eq i32 %12, 0
  br i1 %13, label %14, label %16

14:                                               ; preds = %7
  %15 = load ptr, ptr %2, align 8, !tbaa !14
  call void @_Py_Dealloc(ptr noundef %15)
  br label %16

16:                                               ; preds = %6, %14, %7
  ret void
}

; Function Attrs: nounwind uwtable
define internal i32 @warn_invalid_escape_sequence(ptr noundef %0, ptr noundef %1, ptr noundef %2) #0 {
  %4 = alloca i32, align 4
  %5 = alloca ptr, align 8
  %6 = alloca ptr, align 8
  %7 = alloca ptr, align 8
  %8 = alloca i8, align 1
  %9 = alloca i32, align 4
  %10 = alloca i32, align 4
  %11 = alloca ptr, align 8
  %12 = alloca ptr, align 8
  store ptr %0, ptr %5, align 8, !tbaa !4
  store ptr %1, ptr %6, align 8, !tbaa !10
  store ptr %2, ptr %7, align 8, !tbaa !4
  %13 = load ptr, ptr %5, align 8, !tbaa !4
  %14 = getelementptr inbounds nuw %struct.Parser, ptr %13, i32 0, i32 21
  %15 = load i32, ptr %14, align 4, !tbaa !39
  %16 = icmp ne i32 %15, 0
  br i1 %16, label %17, label %18

17:                                               ; preds = %3
  store i32 0, ptr %4, align 4
  br label %121

18:                                               ; preds = %3
  call void @llvm.lifetime.start.p0(i64 1, ptr %8) #8
  %19 = load ptr, ptr %6, align 8, !tbaa !10
  %20 = load i8, ptr %19, align 1, !tbaa !16
  store i8 %20, ptr %8, align 1, !tbaa !16
  %21 = load ptr, ptr %7, align 8, !tbaa !4
  %22 = getelementptr inbounds nuw %struct.Token, ptr %21, i32 0, i32 0
  %23 = load i32, ptr %22, align 8, !tbaa !45
  %24 = icmp eq i32 %23, 60
  br i1 %24, label %30, label %25

25:                                               ; preds = %18
  %26 = load ptr, ptr %7, align 8, !tbaa !4
  %27 = getelementptr inbounds nuw %struct.Token, ptr %26, i32 0, i32 0
  %28 = load i32, ptr %27, align 8, !tbaa !45
  %29 = icmp eq i32 %28, 61
  br i1 %29, label %30, label %39

30:                                               ; preds = %25, %18
  %31 = load i8, ptr %8, align 1, !tbaa !16
  %32 = zext i8 %31 to i32
  %33 = icmp eq i32 %32, 123
  br i1 %33, label %38, label %34

34:                                               ; preds = %30
  %35 = load i8, ptr %8, align 1, !tbaa !16
  %36 = zext i8 %35 to i32
  %37 = icmp eq i32 %36, 125
  br i1 %37, label %38, label %39

38:                                               ; preds = %34, %30
  store i32 0, ptr %4, align 4
  store i32 1, ptr %9, align 4
  br label %120

39:                                               ; preds = %34, %25
  call void @llvm.lifetime.start.p0(i64 4, ptr %10) #8
  %40 = load i8, ptr %8, align 1, !tbaa !16
  %41 = zext i8 %40 to i32
  %42 = icmp sle i32 52, %41
  br i1 %42, label %43, label %47

43:                                               ; preds = %39
  %44 = load i8, ptr %8, align 1, !tbaa !16
  %45 = zext i8 %44 to i32
  %46 = icmp sle i32 %45, 55
  br label %47

47:                                               ; preds = %43, %39
  %48 = phi i1 [ false, %39 ], [ %46, %43 ]
  %49 = zext i1 %48 to i32
  store i32 %49, ptr %10, align 4, !tbaa !8
  call void @llvm.lifetime.start.p0(i64 8, ptr %11) #8
  %50 = load i32, ptr %10, align 4, !tbaa !8
  %51 = icmp ne i32 %50, 0
  br i1 %51, label %52, label %56

52:                                               ; preds = %47
  %53 = load ptr, ptr %6, align 8, !tbaa !10
  %54 = load ptr, ptr %6, align 8, !tbaa !10
  %55 = call ptr (ptr, ...) @PyUnicode_FromFormat(ptr noundef @.str.5, ptr noundef %53, ptr noundef %54)
  br label %62

56:                                               ; preds = %47
  %57 = load i8, ptr %8, align 1, !tbaa !16
  %58 = zext i8 %57 to i32
  %59 = load i8, ptr %8, align 1, !tbaa !16
  %60 = zext i8 %59 to i32
  %61 = call ptr (ptr, ...) @PyUnicode_FromFormat(ptr noundef @.str.6, i32 noundef %58, i32 noundef %60)
  br label %62

62:                                               ; preds = %56, %52
  %63 = phi ptr [ %55, %52 ], [ %61, %56 ]
  store ptr %63, ptr %11, align 8, !tbaa !14
  %64 = load ptr, ptr %11, align 8, !tbaa !14
  %65 = icmp eq ptr %64, null
  br i1 %65, label %66, label %67

66:                                               ; preds = %62
  store i32 -1, ptr %4, align 4
  store i32 1, ptr %9, align 4
  br label %119

67:                                               ; preds = %62
  call void @llvm.lifetime.start.p0(i64 8, ptr %12) #8
  %68 = load ptr, ptr %5, align 8, !tbaa !4
  %69 = getelementptr inbounds nuw %struct.Parser, ptr %68, i32 0, i32 17
  %70 = load i32, ptr %69, align 8, !tbaa !46
  %71 = icmp sge i32 %70, 12
  br i1 %71, label %72, label %74

72:                                               ; preds = %67
  %73 = load ptr, ptr @PyExc_SyntaxWarning, align 8, !tbaa !14
  store ptr %73, ptr %12, align 8, !tbaa !14
  br label %76

74:                                               ; preds = %67
  %75 = load ptr, ptr @PyExc_DeprecationWarning, align 8, !tbaa !14
  store ptr %75, ptr %12, align 8, !tbaa !14
  br label %76

76:                                               ; preds = %74, %72
  %77 = load ptr, ptr %12, align 8, !tbaa !14
  %78 = load ptr, ptr %11, align 8, !tbaa !14
  %79 = load ptr, ptr %5, align 8, !tbaa !4
  %80 = getelementptr inbounds nuw %struct.Parser, ptr %79, i32 0, i32 0
  %81 = load ptr, ptr %80, align 8, !tbaa !47
  %82 = getelementptr inbounds nuw %struct.tok_state, ptr %81, i32 0, i32 25
  %83 = load ptr, ptr %82, align 8, !tbaa !48
  %84 = load ptr, ptr %7, align 8, !tbaa !4
  %85 = getelementptr inbounds nuw %struct.Token, ptr %84, i32 0, i32 3
  %86 = load i32, ptr %85, align 4, !tbaa !24
  %87 = call i32 @PyErr_WarnExplicitObject(ptr noundef %77, ptr noundef %78, ptr noundef %83, i32 noundef %86, ptr noundef null, ptr noundef null)
  %88 = icmp slt i32 %87, 0
  br i1 %88, label %89, label %116

89:                                               ; preds = %76
  %90 = load ptr, ptr %12, align 8, !tbaa !14
  %91 = call i32 @PyErr_ExceptionMatches(ptr noundef %90)
  %92 = icmp ne i32 %91, 0
  br i1 %92, label %93, label %114

93:                                               ; preds = %89
  call void @PyErr_Clear()
  %94 = load ptr, ptr %7, align 8, !tbaa !4
  %95 = load ptr, ptr %5, align 8, !tbaa !4
  %96 = getelementptr inbounds nuw %struct.Parser, ptr %95, i32 0, i32 19
  store ptr %94, ptr %96, align 8, !tbaa !51
  %97 = load i32, ptr %10, align 4, !tbaa !8
  %98 = icmp ne i32 %97, 0
  br i1 %98, label %99, label %105

99:                                               ; preds = %93
  %100 = load ptr, ptr %5, align 8, !tbaa !4
  %101 = load ptr, ptr @PyExc_SyntaxError, align 8, !tbaa !14
  %102 = load ptr, ptr %6, align 8, !tbaa !10
  %103 = load ptr, ptr %6, align 8, !tbaa !10
  %104 = call ptr (ptr, ptr, i32, ptr, ...) @_PyPegen_raise_error(ptr noundef %100, ptr noundef %101, i32 noundef 0, ptr noundef @.str.7, ptr noundef %102, ptr noundef %103)
  br label %113

105:                                              ; preds = %93
  %106 = load ptr, ptr %5, align 8, !tbaa !4
  %107 = load ptr, ptr @PyExc_SyntaxError, align 8, !tbaa !14
  %108 = load i8, ptr %8, align 1, !tbaa !16
  %109 = zext i8 %108 to i32
  %110 = load i8, ptr %8, align 1, !tbaa !16
  %111 = zext i8 %110 to i32
  %112 = call ptr (ptr, ptr, i32, ptr, ...) @_PyPegen_raise_error(ptr noundef %106, ptr noundef %107, i32 noundef 0, ptr noundef @.str.8, i32 noundef %109, i32 noundef %111)
  br label %113

113:                                              ; preds = %105, %99
  br label %114

114:                                              ; preds = %113, %89
  %115 = load ptr, ptr %11, align 8, !tbaa !14
  call void @Py_DECREF(ptr noundef %115)
  store i32 -1, ptr %4, align 4
  store i32 1, ptr %9, align 4
  br label %118

116:                                              ; preds = %76
  %117 = load ptr, ptr %11, align 8, !tbaa !14
  call void @Py_DECREF(ptr noundef %117)
  store i32 0, ptr %4, align 4
  store i32 1, ptr %9, align 4
  br label %118

118:                                              ; preds = %116, %114
  call void @llvm.lifetime.end.p0(i64 8, ptr %12) #8
  br label %119

119:                                              ; preds = %118, %66
  call void @llvm.lifetime.end.p0(i64 8, ptr %11) #8
  call void @llvm.lifetime.end.p0(i64 4, ptr %10) #8
  br label %120

120:                                              ; preds = %119, %38
  call void @llvm.lifetime.end.p0(i64 1, ptr %8) #8
  br label %121

121:                                              ; preds = %120, %17
  %122 = load i32, ptr %4, align 4
  ret i32 %122
}