; Function Attrs: nounwind uwtable
define internal fastcc range(i32 -1, 1) i32 @warn_invalid_escape_sequence(ptr noundef %0, ptr noundef nonnull %1, ptr noundef %2) unnamed_addr #0 {
  %4 = getelementptr inbounds nuw i8, ptr %0, i64 148
  %5 = load i32, ptr %4, align 4, !tbaa !35
  %.not = icmp eq i32 %5, 0
  br i1 %.not, label %6, label %Py_DECREF.exit38

6:                                                ; preds = %3
  %7 = load i8, ptr %1, align 1, !tbaa !4
  %8 = load i32, ptr %2, align 8, !tbaa !42
  %9 = and i32 %8, -2
  %switch = icmp eq i32 %9, 60
  br i1 %switch, label %10, label %11

10:                                               ; preds = %6
  switch i8 %7, label %11 [
    i8 125, label %Py_DECREF.exit38
    i8 123, label %Py_DECREF.exit38
  ]

11:                                               ; preds = %6, %10
  %12 = zext i8 %7 to i32
  %13 = and i8 %7, -4
  %14 = icmp eq i8 %13, 52
  br i1 %14, label %15, label %17

15:                                               ; preds = %11
  %16 = tail call ptr (ptr, ...) @PyUnicode_FromFormat(ptr noundef nonnull @.str.5, ptr noundef nonnull %1, ptr noundef nonnull %1) #8
  br label %19

17:                                               ; preds = %11
  %18 = tail call ptr (ptr, ...) @PyUnicode_FromFormat(ptr noundef nonnull @.str.6, i32 noundef %12, i32 noundef %12) #8
  br label %19

19:                                               ; preds = %17, %15
  %20 = phi ptr [ %16, %15 ], [ %18, %17 ]
  %21 = icmp eq ptr %20, null
  br i1 %21, label %Py_DECREF.exit38, label %22

22:                                               ; preds = %19
  %23 = getelementptr inbounds nuw i8, ptr %0, i64 104
  %24 = load i32, ptr %23, align 8, !tbaa !43
  %25 = icmp sgt i32 %24, 11
  %PyExc_SyntaxWarning.val = load ptr, ptr @PyExc_SyntaxWarning, align 8
  %PyExc_DeprecationWarning.val = load ptr, ptr @PyExc_DeprecationWarning, align 8
  %.0 = select i1 %25, ptr %PyExc_SyntaxWarning.val, ptr %PyExc_DeprecationWarning.val
  %26 = load ptr, ptr %0, align 8, !tbaa !44
  %27 = getelementptr inbounds nuw i8, ptr %26, i64 2336
  %28 = load ptr, ptr %27, align 8, !tbaa !45
  %29 = getelementptr inbounds nuw i8, ptr %2, i64 20
  %30 = load i32, ptr %29, align 4, !tbaa !29
  %31 = tail call i32 @PyErr_WarnExplicitObject(ptr noundef %.0, ptr noundef nonnull %20, ptr noundef %28, i32 noundef %30, ptr noundef null, ptr noundef null) #8
  %32 = icmp slt i32 %31, 0
  br i1 %32, label %33, label %47

33:                                               ; preds = %22
  %34 = tail call i32 @PyErr_ExceptionMatches(ptr noundef %.0) #8
  %.not36 = icmp eq i32 %34, 0
  br i1 %.not36, label %42, label %35

35:                                               ; preds = %33
  tail call void @PyErr_Clear() #8
  %36 = getelementptr inbounds nuw i8, ptr %0, i64 136
  store ptr %2, ptr %36, align 8, !tbaa !48
  %37 = load ptr, ptr @PyExc_SyntaxError, align 8, !tbaa !27
  br i1 %14, label %38, label %40

38:                                               ; preds = %35
  %39 = tail call ptr (ptr, ptr, i32, ptr, ...) @_PyPegen_raise_error(ptr noundef nonnull %0, ptr noundef %37, i32 noundef 0, ptr noundef nonnull @.str.7, ptr noundef nonnull %1, ptr noundef nonnull %1) #8
  br label %42

40:                                               ; preds = %35
  %41 = tail call ptr (ptr, ptr, i32, ptr, ...) @_PyPegen_raise_error(ptr noundef nonnull %0, ptr noundef %37, i32 noundef 0, ptr noundef nonnull @.str.8, i32 noundef %12, i32 noundef %12) #8
  br label %42

42:                                               ; preds = %38, %40, %33
  %43 = load i32, ptr %20, align 8, !tbaa !4
  %.not.i37 = icmp sgt i32 %43, -1
  br i1 %.not.i37, label %44, label %Py_DECREF.exit38

44:                                               ; preds = %42
  %45 = add nsw i32 %43, -1
  store i32 %45, ptr %20, align 8, !tbaa !4
  %46 = icmp eq i32 %45, 0
  br i1 %46, label %Py_DECREF.exit38.sink.split, label %Py_DECREF.exit38

47:                                               ; preds = %22
  %48 = load i32, ptr %20, align 8, !tbaa !4
  %.not.i = icmp sgt i32 %48, -1
  br i1 %.not.i, label %49, label %Py_DECREF.exit38

49:                                               ; preds = %47
  %50 = add nsw i32 %48, -1
  store i32 %50, ptr %20, align 8, !tbaa !4
  %51 = icmp eq i32 %50, 0
  br i1 %51, label %Py_DECREF.exit38.sink.split, label %Py_DECREF.exit38

Py_DECREF.exit38.sink.split:                      ; preds = %49, %44
  %.033.ph = phi i32 [ -1, %44 ], [ 0, %49 ]
  tail call void @_Py_Dealloc(ptr noundef nonnull %20) #8
  br label %Py_DECREF.exit38

Py_DECREF.exit38:                                 ; preds = %Py_DECREF.exit38.sink.split, %49, %47, %44, %42, %10, %10, %19, %3
  %.033 = phi i32 [ 0, %3 ], [ 0, %10 ], [ 0, %10 ], [ -1, %19 ], [ -1, %42 ], [ -1, %44 ], [ 0, %47 ], [ 0, %49 ], [ %.033.ph, %Py_DECREF.exit38.sink.split ]
  ret i32 %.033
}